; Function Attrs: nounwind uwtable
define ptr @l_Std_Time_Database_WindowsDb_inst___lambda__2___boxed(ptr noundef %0, ptr noundef %1) #0 {
  %3 = load ptr, ptr @l_Std_Time_Database_WindowsDb_inst___lambda__2___closed__2, align 8, !tbaa !12
  %4 = load ptr, ptr @l_Std_Time_Database_WindowsDb_inst___lambda__2___closed__1, align 8, !tbaa !12
  %5 = tail call ptr @l_Bind_bindLeft___at_Std_Time_Database_WindowsDb_inst___spec__1(ptr noundef %3, ptr noundef %4, ptr noundef %1)
  %6 = ptrtoint ptr %0 to i64
  %7 = and i64 %6, 1
  %.not = icmp eq i64 %7, 0
  br i1 %.not, label %8, label %lean_dec.exit

8:                                                ; preds = %2
  %9 = load i32, ptr %0, align 4, !tbaa !8
  %10 = icmp sgt i32 %9, 1
  br i1 %10, label %11, label %13, !prof !11

11:                                               ; preds = %8
  %12 = add nsw i32 %9, -1
  store i32 %12, ptr %0, align 4, !tbaa !8
  br label %lean_dec.exit

13:                                               ; preds = %8
  %.not.i = icmp eq i32 %9, 0
  br i1 %.not.i, label %lean_dec.exit, label %14

14:                                               ; preds = %13
  tail call void @lean_dec_ref_cold(ptr noundef nonnull %0) #5
  br label %lean_dec.exit

lean_dec.exit:                                    ; preds = %14, %13, %11, %2
  ret ptr %5
}